; Function Attrs: nounwind uwtable
define internal ptr @sock_new(ptr noundef %0, ptr readnone captures(none) %1, ptr readnone captures(none) %2) #0 {
  %4 = getelementptr inbounds nuw i8, ptr %0, i64 304
  %5 = load ptr, ptr %4, align 8, !tbaa !82
  %6 = tail call ptr %5(ptr noundef %0, i64 noundef 0) #13
  %.not = icmp eq ptr %6, null
  br i1 %.not, label %12, label %7

7:                                                ; preds = %3
  %8 = getelementptr inbounds nuw i8, ptr %6, i64 16
  store i32 -1, ptr %8, align 8, !tbaa !83
  %9 = tail call i64 @_PyTime_FromSeconds(i32 noundef -1) #13
  %10 = getelementptr inbounds nuw i8, ptr %6, i64 40
  store i64 %9, ptr %10, align 8, !tbaa !90
  %11 = getelementptr inbounds nuw i8, ptr %6, i64 32
  store ptr @set_error, ptr %11, align 8, !tbaa !89
  br label %12

12:                                               ; preds = %7, %3
  ret ptr %6
}